; Function Attrs: nounwind uwtable
define ptr @l_Lean_Compiler_LCNF_FunDecl_mapFVarM___rarg___lambda__2(ptr noundef %0, ptr noundef %1, ptr noundef %2, ptr noundef %3, ptr noundef %4, ptr noundef %5, ptr noundef %6) #0 {
  %8 = getelementptr inbounds nuw i8, ptr %0, i64 40
  %9 = load ptr, ptr %8, align 8, !tbaa !4
  %10 = ptrtoint ptr %9 to i64
  %11 = and i64 %10, 1
  %.not = icmp eq i64 %11, 0
  br i1 %.not, label %12, label %lean_inc.exit19

12:                                               ; preds = %7
  %.val.i = load i32, ptr %9, align 4, !tbaa !8
  %13 = icmp sgt i32 %.val.i, 0
  br i1 %13, label %14, label %16, !prof !13

14:                                               ; preds = %12
  %15 = add nuw i32 %.val.i, 1
  store i32 %15, ptr %9, align 4, !tbaa !8
  br label %lean_inc.exit19

16:                                               ; preds = %12
  %.not.i = icmp eq i32 %.val.i, 0
  br i1 %.not.i, label %lean_inc.exit19, label %17

17:                                               ; preds = %16
  tail call void @lean_inc_ref_cold(ptr noundef nonnull %9) #4
  br label %lean_inc.exit19

lean_inc.exit19:                                  ; preds = %17, %16, %14, %7
  %18 = ptrtoint ptr %1 to i64
  %19 = and i64 %18, 1
  %.not23 = icmp eq i64 %19, 0
  br i1 %.not23, label %20, label %lean_inc.exit

20:                                               ; preds = %lean_inc.exit19
  %.val.i20 = load i32, ptr %1, align 4, !tbaa !8
  %21 = icmp sgt i32 %.val.i20, 0
  br i1 %21, label %22, label %24, !prof !13

22:                                               ; preds = %20
  %23 = add nuw i32 %.val.i20, 1
  store i32 %23, ptr %1, align 4, !tbaa !8
  br label %lean_inc.exit

24:                                               ; preds = %20
  %.not.i21 = icmp eq i32 %.val.i20, 0
  br i1 %.not.i21, label %lean_inc.exit, label %25

25:                                               ; preds = %24
  tail call void @lean_inc_ref_cold(ptr noundef nonnull %1) #4
  br label %lean_inc.exit

lean_inc.exit:                                    ; preds = %25, %24, %22, %lean_inc.exit19
  %26 = tail call ptr @l_Lean_Compiler_LCNF_Code_mapFVarM___rarg(ptr noundef %1, ptr noundef %2, ptr noundef %3, ptr noundef %9)
  tail call void @lean_inc_heartbeat() #4
  %27 = tail call noalias ptr @mi_malloc_small(i64 noundef 56) #4
  %28 = icmp eq ptr %27, null
  br i1 %28, label %29, label %lean_alloc_closure.exit

29:                                               ; preds = %lean_inc.exit
  tail call void @lean_internal_panic_out_of_memory() #5
  unreachable

lean_alloc_closure.exit:                          ; preds = %lean_inc.exit
  %30 = getelementptr inbounds nuw i8, ptr %27, i64 4
  store i32 1, ptr %27, align 4, !tbaa !8
  store i32 -184549320, ptr %30, align 4
  %31 = getelementptr inbounds nuw i8, ptr %27, i64 8
  store ptr @l_Lean_Compiler_LCNF_FunDecl_mapFVarM___rarg___lambda__1, ptr %31, align 8, !tbaa !4
  %32 = getelementptr inbounds nuw i8, ptr %27, i64 16
  store i16 5, ptr %32, align 8, !tbaa !11
  %33 = getelementptr inbounds nuw i8, ptr %27, i64 18
  store i16 4, ptr %33, align 2, !tbaa !11
  %34 = getelementptr inbounds nuw i8, ptr %27, i64 24
  store ptr %0, ptr %34, align 8, !tbaa !4
  %35 = getelementptr inbounds nuw i8, ptr %27, i64 32
  store ptr %6, ptr %35, align 8, !tbaa !4
  %36 = getelementptr inbounds nuw i8, ptr %27, i64 40
  store ptr %4, ptr %36, align 8, !tbaa !4
  %37 = getelementptr inbounds nuw i8, ptr %27, i64 48
  store ptr %1, ptr %37, align 8, !tbaa !4
  %38 = tail call ptr @lean_apply_4(ptr noundef %5, ptr noundef nonnull inttoptr (i64 1 to ptr), ptr noundef nonnull inttoptr (i64 1 to ptr), ptr noundef %26, ptr noundef nonnull %27) #4
  ret ptr %38
}